; Function Attrs: mustprogress uwtable
define hidden void @_ZN4cvc58internal6theory11quantifiers13QModelBuilder10finishInitEv(ptr nocapture noundef nonnull align 8 dereferenceable(176) %this) unnamed_addr #3 align 2 personality ptr @__gxx_personality_v0 {
entry:
  %call = tail call noalias noundef nonnull dereferenceable(656) ptr @_Znwm(i64 noundef 656) #16
  %d_env = getelementptr inbounds i8, ptr %this, i64 8
  %0 = load ptr, ptr %d_env, align 8
  %d_qstate = getelementptr inbounds i8, ptr %this, i64 128
  %1 = load ptr, ptr %d_qstate, align 8
  %d_qreg = getelementptr inbounds i8, ptr %this, i64 144
  %2 = load ptr, ptr %d_qreg, align 8
  %d_treg = getelementptr inbounds i8, ptr %this, i64 152
  %3 = load ptr, ptr %d_treg, align 8
  invoke void @_ZN4cvc58internal6theory11quantifiers15FirstOrderModelC1ERNS0_3EnvERNS2_16QuantifiersStateERNS2_19QuantifiersRegistryERNS2_12TermRegistryE(ptr noundef nonnull align 8 dereferenceable(656) %call, ptr noundef nonnull align 8 dereferenceable(576) %0, ptr noundef nonnull align 8 dereferenceable(248) %1, ptr noundef nonnull align 8 dereferenceable(488) %2, ptr noundef nonnull align 8 dereferenceable(208) %3)
          to label %invoke.cont unwind label %lpad

invoke.cont:                                      ; preds = %entry
  %d_modelAloc = getelementptr inbounds i8, ptr %this, i64 168
  %4 = load ptr, ptr %d_modelAloc, align 8
  store ptr %call, ptr %d_modelAloc, align 8
  %tobool.not.i.i = icmp eq ptr %4, null
  br i1 %tobool.not.i.i, label %_ZNSt10unique_ptrIN4cvc58internal6theory11quantifiers15FirstOrderModelESt14default_deleteIS4_EE5resetEPS4_.exit, label %_ZNKSt14default_deleteIN4cvc58internal6theory11quantifiers15FirstOrderModelEEclEPS4_.exit.i.i

_ZNKSt14default_deleteIN4cvc58internal6theory11quantifiers15FirstOrderModelEEclEPS4_.exit.i.i: ; preds = %invoke.cont
  %vtable.i.i.i = load ptr, ptr %4, align 8
  %vfn.i.i.i = getelementptr inbounds i8, ptr %vtable.i.i.i, i64 8
  %5 = load ptr, ptr %vfn.i.i.i, align 8
  tail call void %5(ptr noundef nonnull align 8 dereferenceable(656) %4) #17
  %.pre = load ptr, ptr %d_modelAloc, align 8
  br label %_ZNSt10unique_ptrIN4cvc58internal6theory11quantifiers15FirstOrderModelESt14default_deleteIS4_EE5resetEPS4_.exit

_ZNSt10unique_ptrIN4cvc58internal6theory11quantifiers15FirstOrderModelESt14default_deleteIS4_EE5resetEPS4_.exit: ; preds = %invoke.cont, %_ZNKSt14default_deleteIN4cvc58internal6theory11quantifiers15FirstOrderModelEEclEPS4_.exit.i.i
  %6 = phi ptr [ %call, %invoke.cont ], [ %.pre, %_ZNKSt14default_deleteIN4cvc58internal6theory11quantifiers15FirstOrderModelEEclEPS4_.exit.i.i ]
  %d_model = getelementptr inbounds i8, ptr %this, i64 160
  store ptr %6, ptr %d_model, align 8
  ret void

lpad:                                             ; preds = %entry
  %7 = landingpad { ptr, i32 }
          cleanup
  tail call void @_ZdlPv(ptr noundef nonnull %call) #18
  resume { ptr, i32 } %7
}